; ModuleID = 'source-C-CXX/3/906.cpp'
source_filename = "source-C-CXX/3/906.cpp"
target datalayout = "e-m:e-p270:32:32-p271:32:32-p272:64:64-i64:64-f80:128-n8:16:32:64-S128"
target triple = "x86_64-pc-linux-gnu"

%"class.std::ios_base::Init" = type { i8 }
%"class.std::basic_istream" = type { i32 (...)**, i64, %"class.std::basic_ios" }
%"class.std::basic_ios" = type { %"class.std::ios_base", %"class.std::basic_ostream"*, i8, i8, %"class.std::basic_streambuf"*, %"class.std::ctype"*, %"class.std::num_put"*, %"class.std::num_get"* }
%"class.std::ios_base" = type { i32 (...)**, i64, i64, i32, i32, i32, %"struct.std::ios_base::_Callback_list"*, %"struct.std::ios_base::_Words", [8 x %"struct.std::ios_base::_Words"], i32, %"struct.std::ios_base::_Words"*, %"class.std::locale" }
%"struct.std::ios_base::_Callback_list" = type { %"struct.std::ios_base::_Callback_list"*, void (i32, %"class.std::ios_base"*, i32)*, i32, i32 }
%"struct.std::ios_base::_Words" = type { i8*, i64 }
%"class.std::locale" = type { %"class.std::locale::_Impl"* }
%"class.std::locale::_Impl" = type { i32, %"class.std::locale::facet"**, i64, %"class.std::locale::facet"**, i8** }
%"class.std::locale::facet" = type <{ i32 (...)**, i32, [4 x i8] }>
%"class.std::basic_ostream" = type { i32 (...)**, %"class.std::basic_ios" }
%"class.std::basic_streambuf" = type { i32 (...)**, i8*, i8*, i8*, i8*, i8*, i8*, %"class.std::locale" }
%"class.std::ctype" = type <{ %"class.std::locale::facet.base", [4 x i8], %struct.__locale_struct*, i8, [7 x i8], i32*, i32*, i16*, i8, [256 x i8], [256 x i8], i8, [6 x i8] }>
%"class.std::locale::facet.base" = type <{ i32 (...)**, i32 }>
%struct.__locale_struct = type { [13 x %struct.__locale_data*], i16*, i32*, i32*, [13 x i8*] }
%struct.__locale_data = type opaque
%"class.std::num_put" = type { %"class.std::locale::facet.base", [4 x i8] }
%"class.std::num_get" = type { %"class.std::locale::facet.base", [4 x i8] }

@_ZStL8__ioinit = internal global %"class.std::ios_base::Init" zeroinitializer, align 1
@__dso_handle = external hidden global i8
@_ZSt3cin = external global %"class.std::basic_istream", align 8
@_ZSt4cout = external global %"class.std::basic_ostream", align 8
@llvm.global_ctors = appending global [1 x { i32, void ()*, i8* }] [{ i32, void ()*, i8* } { i32 65535, void ()* @_GLOBAL__sub_I_906.cpp, i8* null }]

declare void @_ZNSt8ios_base4InitC1Ev(%"class.std::ios_base::Init"* nonnull align 1 dereferenceable(1)) unnamed_addr #0

; Function Attrs: nounwind
declare void @_ZNSt8ios_base4InitD1Ev(%"class.std::ios_base::Init"* nonnull align 1 dereferenceable(1)) unnamed_addr #1

; Function Attrs: nofree nounwind
declare i32 @__cxa_atexit(void (i8*)*, i8*, i8*) local_unnamed_addr #2

; Function Attrs: mustprogress norecurse sspstrong uwtable
define dso_local i32 @main() local_unnamed_addr #3 {
  %1 = alloca i32, align 4
  %2 = alloca i32, align 4
  %3 = bitcast i32* %1 to i8*
  call void @llvm.lifetime.start.p0i8(i64 4, i8* nonnull %3) #8
  %4 = bitcast i32* %2 to i8*
  call void @llvm.lifetime.start.p0i8(i64 4, i8* nonnull %4) #8
  %5 = call nonnull align 8 dereferenceable(16) %"class.std::basic_istream"* @_ZNSirsERi(%"class.std::basic_istream"* nonnull align 8 dereferenceable(16) @_ZSt3cin, i32* nonnull align 4 dereferenceable(4) %1)
  %6 = call nonnull align 8 dereferenceable(16) %"class.std::basic_istream"* @_ZNSirsERi(%"class.std::basic_istream"* nonnull align 8 dereferenceable(16) %5, i32* nonnull align 4 dereferenceable(4) %2)
  %7 = load i32, i32* %1, align 4, !tbaa !5
  %8 = zext i32 %7 to i64
  %9 = load i32, i32* %2, align 4, !tbaa !5
  %10 = zext i32 %9 to i64
  %11 = call i8* @llvm.stacksave()
  %12 = mul nuw i64 %10, %8
  %13 = alloca i32, i64 %12, align 16
  %14 = bitcast i32* %13 to i32**
  %15 = load i32, i32* %1, align 4, !tbaa !5
  %16 = icmp sgt i32 %15, 0
  %17 = load i32, i32* %2, align 4, !tbaa !5
  %18 = icmp sgt i32 %17, 0
  %19 = select i1 %16, i1 %18, i1 false
  br i1 %19, label %20, label %28

20:                                               ; preds = %0, %46
  %21 = phi i32 [ %47, %46 ], [ %15, %0 ]
  %22 = phi i32 [ %48, %46 ], [ %17, %0 ]
  %23 = phi i64 [ %49, %46 ], [ 0, %0 ]
  %24 = icmp sgt i32 %22, 0
  br i1 %24, label %25, label %46

25:                                               ; preds = %20
  %26 = getelementptr inbounds i32*, i32** %14, i64 %23
  %27 = load i32*, i32** %26, align 8, !tbaa !9
  br label %36

28:                                               ; preds = %46, %0
  %29 = phi i32 [ %15, %0 ], [ %47, %46 ]
  %30 = phi i32 [ %17, %0 ], [ %48, %46 ]
  %31 = add i32 %30, -2
  %32 = add i32 %31, %29
  %33 = icmp sgt i32 %32, -1
  %34 = icmp sgt i32 %29, 0
  %35 = and i1 %33, %34
  br i1 %35, label %52, label %134

36:                                               ; preds = %25, %36
  %37 = phi i64 [ 0, %25 ], [ %40, %36 ]
  %38 = getelementptr inbounds i32, i32* %27, i64 %37
  %39 = call nonnull align 8 dereferenceable(16) %"class.std::basic_istream"* @_ZNSirsERi(%"class.std::basic_istream"* nonnull align 8 dereferenceable(16) @_ZSt3cin, i32* nonnull align 4 dereferenceable(4) %38)
  %40 = add nuw nsw i64 %37, 1
  %41 = load i32, i32* %2, align 4, !tbaa !5
  %42 = sext i32 %41 to i64
  %43 = icmp slt i64 %40, %42
  br i1 %43, label %36, label %44, !llvm.loop !11

44:                                               ; preds = %36
  %45 = load i32, i32* %1, align 4, !tbaa !5
  br label %46

46:                                               ; preds = %44, %20
  %47 = phi i32 [ %45, %44 ], [ %21, %20 ]
  %48 = phi i32 [ %41, %44 ], [ %22, %20 ]
  %49 = add nuw nsw i64 %23, 1
  %50 = sext i32 %47 to i64
  %51 = icmp slt i64 %49, %50
  br i1 %51, label %20, label %28, !llvm.loop !13

52:                                               ; preds = %28, %126
  %53 = phi i32 [ %127, %126 ], [ %29, %28 ]
  %54 = phi i32 [ %128, %126 ], [ %30, %28 ]
  %55 = phi i64 [ %129, %126 ], [ 0, %28 ]
  %56 = icmp sgt i32 %53, 0
  %57 = icmp sgt i32 %54, 0
  %58 = select i1 %56, i1 %57, i1 false
  br i1 %58, label %59, label %126

59:                                               ; preds = %52, %117
  %60 = phi i32 [ %118, %117 ], [ %53, %52 ]
  %61 = phi i32 [ %119, %117 ], [ %54, %52 ]
  %62 = phi i32 [ %120, %117 ], [ %53, %52 ]
  %63 = phi i32 [ %121, %117 ], [ %54, %52 ]
  %64 = phi i32 [ %122, %117 ], [ %54, %52 ]
  %65 = phi i64 [ %123, %117 ], [ 0, %52 ]
  %66 = getelementptr inbounds i32*, i32** %14, i64 %65
  %67 = icmp sgt i32 %64, 0
  br i1 %67, label %68, label %117

68:                                               ; preds = %59, %109
  %69 = phi i32 [ %110, %109 ], [ %61, %59 ]
  %70 = phi i32 [ %111, %109 ], [ %63, %59 ]
  %71 = phi i64 [ %112, %109 ], [ 0, %59 ]
  %72 = add nuw nsw i64 %71, %65
  %73 = icmp eq i64 %55, %72
  br i1 %73, label %74, label %109

74:                                               ; preds = %68
  %75 = load i32*, i32** %66, align 8, !tbaa !9
  %76 = getelementptr inbounds i32, i32* %75, i64 %71
  %77 = load i32, i32* %76, align 4, !tbaa !5
  %78 = call nonnull align 8 dereferenceable(8) %"class.std::basic_ostream"* @_ZNSolsEi(%"class.std::basic_ostream"* nonnull align 8 dereferenceable(8) @_ZSt4cout, i32 %77)
  %79 = bitcast %"class.std::basic_ostream"* %78 to i8**
  %80 = load i8*, i8** %79, align 8, !tbaa !15
  %81 = getelementptr i8, i8* %80, i64 -24
  %82 = bitcast i8* %81 to i64*
  %83 = load i64, i64* %82, align 8
  %84 = bitcast %"class.std::basic_ostream"* %78 to i8*
  %85 = add nsw i64 %83, 240
  %86 = getelementptr inbounds i8, i8* %84, i64 %85
  %87 = bitcast i8* %86 to %"class.std::ctype"**
  %88 = load %"class.std::ctype"*, %"class.std::ctype"** %87, align 8, !tbaa !17
  %89 = icmp eq %"class.std::ctype"* %88, null
  br i1 %89, label %90, label %91

90:                                               ; preds = %74
  call void @_ZSt16__throw_bad_castv() #9
  unreachable

91:                                               ; preds = %74
  %92 = getelementptr inbounds %"class.std::ctype", %"class.std::ctype"* %88, i64 0, i32 8
  %93 = load i8, i8* %92, align 8, !tbaa !20
  %94 = icmp eq i8 %93, 0
  br i1 %94, label %98, label %95

95:                                               ; preds = %91
  %96 = getelementptr inbounds %"class.std::ctype", %"class.std::ctype"* %88, i64 0, i32 9, i64 10
  %97 = load i8, i8* %96, align 1, !tbaa !22
  br label %104

98:                                               ; preds = %91
  call void @_ZNKSt5ctypeIcE13_M_widen_initEv(%"class.std::ctype"* nonnull align 8 dereferenceable(570) %88)
  %99 = bitcast %"class.std::ctype"* %88 to i8 (%"class.std::ctype"*, i8)***
  %100 = load i8 (%"class.std::ctype"*, i8)**, i8 (%"class.std::ctype"*, i8)*** %99, align 8, !tbaa !15
  %101 = getelementptr inbounds i8 (%"class.std::ctype"*, i8)*, i8 (%"class.std::ctype"*, i8)** %100, i64 6
  %102 = load i8 (%"class.std::ctype"*, i8)*, i8 (%"class.std::ctype"*, i8)** %101, align 8
  %103 = call signext i8 %102(%"class.std::ctype"* nonnull align 8 dereferenceable(570) %88, i8 signext 10)
  br label %104

104:                                              ; preds = %95, %98
  %105 = phi i8 [ %97, %95 ], [ %103, %98 ]
  %106 = call nonnull align 8 dereferenceable(8) %"class.std::basic_ostream"* @_ZNSo3putEc(%"class.std::basic_ostream"* nonnull align 8 dereferenceable(8) %78, i8 signext %105)
  %107 = call nonnull align 8 dereferenceable(8) %"class.std::basic_ostream"* @_ZNSo5flushEv(%"class.std::basic_ostream"* nonnull align 8 dereferenceable(8) %106)
  %108 = load i32, i32* %2, align 4, !tbaa !5
  br label %109

109:                                              ; preds = %68, %104
  %110 = phi i32 [ %69, %68 ], [ %108, %104 ]
  %111 = phi i32 [ %70, %68 ], [ %108, %104 ]
  %112 = add nuw nsw i64 %71, 1
  %113 = sext i32 %111 to i64
  %114 = icmp slt i64 %112, %113
  br i1 %114, label %68, label %115, !llvm.loop !23

115:                                              ; preds = %109
  %116 = load i32, i32* %1, align 4, !tbaa !5
  br label %117

117:                                              ; preds = %115, %59
  %118 = phi i32 [ %116, %115 ], [ %60, %59 ]
  %119 = phi i32 [ %110, %115 ], [ %61, %59 ]
  %120 = phi i32 [ %116, %115 ], [ %62, %59 ]
  %121 = phi i32 [ %111, %115 ], [ %63, %59 ]
  %122 = phi i32 [ %111, %115 ], [ %64, %59 ]
  %123 = add nuw nsw i64 %65, 1
  %124 = sext i32 %120 to i64
  %125 = icmp slt i64 %123, %124
  br i1 %125, label %59, label %126, !llvm.loop !24

126:                                              ; preds = %117, %52
  %127 = phi i32 [ %53, %52 ], [ %118, %117 ]
  %128 = phi i32 [ %54, %52 ], [ %119, %117 ]
  %129 = add nuw nsw i64 %55, 1
  %130 = add i32 %128, -2
  %131 = add i32 %130, %127
  %132 = sext i32 %131 to i64
  %133 = icmp slt i64 %55, %132
  br i1 %133, label %52, label %134, !llvm.loop !25

134:                                              ; preds = %126, %28
  call void @llvm.stackrestore(i8* %11)
  call void @llvm.lifetime.end.p0i8(i64 4, i8* nonnull %4) #8
  call void @llvm.lifetime.end.p0i8(i64 4, i8* nonnull %3) #8
  ret i32 0
}

; Function Attrs: argmemonly mustprogress nofree nosync nounwind willreturn
declare void @llvm.lifetime.start.p0i8(i64 immarg, i8* nocapture) #4

declare nonnull align 8 dereferenceable(16) %"class.std::basic_istream"* @_ZNSirsERi(%"class.std::basic_istream"* nonnull align 8 dereferenceable(16), i32* nonnull align 4 dereferenceable(4)) local_unnamed_addr #0

; Function Attrs: mustprogress nofree nosync nounwind willreturn
declare i8* @llvm.stacksave() #5

declare nonnull align 8 dereferenceable(8) %"class.std::basic_ostream"* @_ZNSolsEi(%"class.std::basic_ostream"* nonnull align 8 dereferenceable(8), i32) local_unnamed_addr #0

; Function Attrs: argmemonly mustprogress nofree nosync nounwind willreturn
declare void @llvm.lifetime.end.p0i8(i64 immarg, i8* nocapture) #4

; Function Attrs: mustprogress nofree nosync nounwind willreturn
declare void @llvm.stackrestore(i8*) #5

declare nonnull align 8 dereferenceable(8) %"class.std::basic_ostream"* @_ZNSo3putEc(%"class.std::basic_ostream"* nonnull align 8 dereferenceable(8), i8 signext) local_unnamed_addr #0

declare nonnull align 8 dereferenceable(8) %"class.std::basic_ostream"* @_ZNSo5flushEv(%"class.std::basic_ostream"* nonnull align 8 dereferenceable(8)) local_unnamed_addr #0

; Function Attrs: noreturn
declare void @_ZSt16__throw_bad_castv() local_unnamed_addr #6

declare void @_ZNKSt5ctypeIcE13_M_widen_initEv(%"class.std::ctype"* nonnull align 8 dereferenceable(570)) local_unnamed_addr #0

; Function Attrs: sspstrong uwtable
define internal void @_GLOBAL__sub_I_906.cpp() #7 section ".text.startup" {
  tail call void @_ZNSt8ios_base4InitC1Ev(%"class.std::ios_base::Init"* nonnull align 1 dereferenceable(1) @_ZStL8__ioinit)
  %1 = tail call i32 @__cxa_atexit(void (i8*)* bitcast (void (%"class.std::ios_base::Init"*)* @_ZNSt8ios_base4InitD1Ev to void (i8*)*), i8* getelementptr inbounds (%"class.std::ios_base::Init", %"class.std::ios_base::Init"* @_ZStL8__ioinit, i64 0, i32 0), i8* nonnull @__dso_handle) #8
  ret void
}


!llvm.module.flags = !{!0, !1, !2, !3}
!llvm.ident = !{!4}

!0 = !{i32 1, !"wchar_size", i32 4}
!1 = !{i32 7, !"PIC Level", i32 2}
!2 = !{i32 7, !"PIE Level", i32 2}
!3 = !{i32 7, !"uwtable", i32 1}
!4 = !{!"clang version 13.0.0"}
!5 = !{!6, !6, i64 0}
!6 = !{!"int", !7, i64 0}
!7 = !{!"omnipotent char", !8, i64 0}
!8 = !{!"Simple C++ TBAA"}
!9 = !{!10, !10, i64 0}
!10 = !{!"any pointer", !7, i64 0}
!11 = distinct !{!11, !12}
!12 = !{!"llvm.loop.mustprogress"}
!13 = distinct !{!13, !12, !14}
!14 = !{!"llvm.loop.unswitch.partial.disable"}
!15 = !{!16, !16, i64 0}
!16 = !{!"vtable pointer", !8, i64 0}
!17 = !{!18, !10, i64 240}
!18 = !{!"_ZTSSt9basic_iosIcSt11char_traitsIcEE", !10, i64 216, !7, i64 224, !19, i64 225, !10, i64 232, !10, i64 240, !10, i64 248, !10, i64 256}
!19 = !{!"bool", !7, i64 0}
!20 = !{!21, !7, i64 56}
!21 = !{!"_ZTSSt5ctypeIcE", !10, i64 16, !19, i64 24, !10, i64 32, !10, i64 40, !10, i64 48, !7, i64 56, !7, i64 57, !7, i64 313, !7, i64 569}
!22 = !{!7, !7, i64 0}
!23 = distinct !{!23, !12}
!24 = distinct !{!24, !12, !14}
!25 = distinct !{!25, !12, !14}
